; Function Attrs: nounwind uwtable
define internal void @btn_inc_event_handler(ptr noundef %0) #0 {
  %2 = tail call ptr @lv_event_get_user_data(ptr noundef %0) #3
  %3 = tail call i32 @lv_event_get_code(ptr noundef %0) #3
  switch i32 %3, label %5 [
    i32 9, label %4
    i32 4, label %4
  ]

4:                                                ; preds = %1, %1
  tail call void @lv_spinbox_increment(ptr noundef %2) #3
  br label %5

5:                                                ; preds = %1, %4
  ret void
}